
0000----CH32V005F6P6-power-board-ble-pmos.elf:     file format elf32-littleriscv
0000----CH32V005F6P6-power-board-ble-pmos.elf
architecture: riscv:rv32, flags 0x00000112:
EXEC_P, HAS_SYMS, D_PAGED
start address 0x00000000

Program Header:
0x70000003 off    0x0000f1d1 vaddr 0x00000000 paddr 0x00000000 align 2**0
         filesz 0x00000030 memsz 0x00000000 flags r--
    LOAD off    0x00001000 vaddr 0x00000000 paddr 0x00000000 align 2**12
         filesz 0x00000ce4 memsz 0x00000ce4 flags r-x
    LOAD off    0x00002000 vaddr 0x20000000 paddr 0x00000ce4 align 2**12
         filesz 0x00000038 memsz 0x00000664 flags rw-
    LOAD off    0x00000600 vaddr 0x20001600 paddr 0x20001600 align 2**12
         filesz 0x00000000 memsz 0x00000200 flags rw-

Sections:
Idx Name          Size      VMA       LMA       File off  Algn
  0 .init         000000a8  00000000  00000000  00001000  2**2
                  CONTENTS, ALLOC, LOAD, READONLY, CODE
  1 .text         00000c3c  000000a8  000000a8  000010a8  2**2
                  CONTENTS, ALLOC, LOAD, READONLY, CODE
  2 .fini         00000000  00000ce4  00000ce4  00002038  2**0
                  CONTENTS, ALLOC, LOAD, CODE
  3 .dalign       00000000  20000000  20000000  00002038  2**0
                  CONTENTS
  4 .dlalign      00000000  00000ce4  00000ce4  00002038  2**0
                  CONTENTS
  5 .data         00000038  20000000  00000ce4  00002000  2**2
                  CONTENTS, ALLOC, LOAD, DATA
  6 .bss          0000062c  20000038  00000d1c  00002038  2**2
                  ALLOC
  7 .stack        00000200  20001600  20001600  00002600  2**0
                  ALLOC
  8 .debug_info   0000439a  00000000  00000000  00002038  2**0
                  CONTENTS, READONLY, DEBUGGING, OCTETS
  9 .debug_abbrev 00001335  00000000  00000000  000063d2  2**0
                  CONTENTS, READONLY, DEBUGGING, OCTETS
 10 .debug_loclists 00001766  00000000  00000000  00007707  2**0
                  CONTENTS, READONLY, DEBUGGING, OCTETS
 11 .debug_aranges 00000448  00000000  00000000  00008e70  2**3
                  CONTENTS, READONLY, DEBUGGING, OCTETS
 12 .debug_rnglists 0000054c  00000000  00000000  000092b8  2**0
                  CONTENTS, READONLY, DEBUGGING, OCTETS
 13 .debug_line   000043c2  00000000  00000000  00009804  2**0
                  CONTENTS, READONLY, DEBUGGING, OCTETS
 14 .debug_str    000011fa  00000000  00000000  0000dbc6  2**0
                  CONTENTS, READONLY, DEBUGGING, OCTETS
 15 .debug_line_str 000003e0  00000000  00000000  0000edc0  2**0
                  CONTENTS, READONLY, DEBUGGING, OCTETS
 16 .comment      00000031  00000000  00000000  0000f1a0  2**0
                  CONTENTS, READONLY
 17 .riscv.attributes 00000030  00000000  00000000  0000f1d1  2**0
                  CONTENTS, READONLY
 18 .debug_frame  000008a0  00000000  00000000  0000f204  2**2
                  CONTENTS, READONLY, DEBUGGING, OCTETS
SYMBOL TABLE:
00000000 l    d  .init	00000000 .init
000000a8 l    d  .text	00000000 .text
00000ce4 l    d  .fini	00000000 .fini
20000000 l    d  .dalign	00000000 .dalign
00000ce4 l    d  .dlalign	00000000 .dlalign
20000000 l    d  .data	00000000 .data
20000038 l    d  .bss	00000000 .bss
20001600 l    d  .stack	00000000 .stack
00000000 l    d  .debug_info	00000000 .debug_info
00000000 l    d  .debug_abbrev	00000000 .debug_abbrev
00000000 l    d  .debug_loclists	00000000 .debug_loclists
00000000 l    d  .debug_aranges	00000000 .debug_aranges
00000000 l    d  .debug_rnglists	00000000 .debug_rnglists
00000000 l    d  .debug_line	00000000 .debug_line
00000000 l    d  .debug_str	00000000 .debug_str
00000000 l    d  .debug_line_str	00000000 .debug_line_str
00000000 l    d  .comment	00000000 .comment
00000000 l    d  .riscv.attributes	00000000 .riscv.attributes
00000000 l    d  .debug_frame	00000000 .debug_frame
00000000 l    df *ABS*	00000000 startup_ch32v00X.o
00000000 l    df *ABS*	00000000 save-restore.o
00000000 l    df *ABS*	00000000 div.o
00000000 l    df *ABS*	00000000 BLE.c
0000013a l     F .text	00000034 __ring_pop.constprop.0
2000003c l     O .bss	00000106 ble_tx_ring
20000038 l     O .bss	00000001 ble_tx_busy
20000144 l     O .bss	00000106 ble_rx_ring
00000000 l    df *ABS*	00000000 GPS.c
000002e4 l     F .text	00000040 __ring_pop
2000024c l     O .bss	00000206 gps_tx_ring
2000024a l     O .bss	00000001 gps_tx_busy
20000454 l     O .bss	00000206 gps_rx_ring
00000000 l    df *ABS*	00000000 Tick.c
00000000 l    df *ABS*	00000000 ch32v00X_it.c
00000000 l    df *ABS*	00000000 main.c
00000000 l    df *ABS*	00000000 system_ch32v00X.c
00000000 l    df *ABS*	00000000 ch32v00X_gpio.c
00000000 l    df *ABS*	00000000 ch32v00X_misc.c
00000000 l    df *ABS*	00000000 ch32v00X_rcc.c
20000028 l     O .data	00000010 PBHBPrescTable
20000014 l     O .data	00000014 ADCPrescTable
00000000 l    df *ABS*	00000000 ch32v00X_usart.c
000005fc  w      .text	00000000 OPCM_IRQHandler
20000838 g       .data	00000000 __global_pointer$
000005fc  w      .text	00000000 TIM1_CC_IRQHandler
000004b0 g     F .text	00000010 HardFault_Handler
00000498 g     F .text	00000016 SysTick_Handler
00000a8e g     F .text	00000062 NVIC_Init
000005fc  w      .text	00000000 PVD_IRQHandler
000004ae g     F .text	00000002 NMI_Handler
20000038 g       .bss	00000000 _sbss
00000200 g       *ABS*	00000000 __stack_size
00000324 g     F .text	000000a2 GPS_Init
000000b2 g     F .text	0000000a .hidden __riscv_restore_2
00000708 g     F .text	000000a2 GPIO_PinRemapConfig
000000c4 g     F .text	0000002c .hidden __hidden___udivsi3
20000010 g     O .data	00000004 SystemCoreClock
00000c9e g     F .text	00000008 USART_ReceiveData
000000c4 g     F .text	0000002c .hidden __udivsi3
000000a8 g       .init	00000000 _einit
00000688 g     F .text	00000076 GPIO_Init
20000660 g     O .bss	00000004 NVIC_Priority_Group
000005fc  w      .text	00000000 SPI1_IRQHandler
00000c4a g     F .text	00000014 USART_Cmd
000000a8 g     F .text	0000000a .hidden __riscv_save_1
000000b2 g     F .text	0000000a .hidden __riscv_restore_0
000005fc  w      .text	00000000 AWU_IRQHandler
000005fc  w      .text	00000000 EXTI7_0_IRQHandler
20001600 g       .stack	00000000 _heap_end
000005fc  w      .text	00000000 DMA1_Channel4_IRQHandler
000005fc  w      .text	00000000 ADC1_IRQHandler
20000664 g       .bss	00000000 _ebss
00000ca6 g     F .text	0000003c USART_GetITStatus
000005fc  w      .text	00000000 DMA1_Channel7_IRQHandler
00000b92 g     F .text	0000001e RCC_PB2PeriphClockCmd
000007aa g     F .text	000002de GPIO_IPD_Unused
000006fe g     F .text	0000000a GPIO_WriteBit
000000f0 g     F .text	00000008 .hidden __umodsi3
000005fc  w      .text	00000000 I2C1_EV_IRQHandler
00000af0 g     F .text	000000a2 RCC_GetClocksFreq
000005fc  w      .text	00000000 DMA1_Channel6_IRQHandler
00000bb0 g     F .text	0000009a USART_Init
000005fc  w      .text	00000000 RCC_IRQHandler
000005fc  w      .text	00000000 TIM1_TRG_COM_IRQHandler
000005fc  w      .text	00000000 DMA1_Channel1_IRQHandler
00000000 g       .init	00000000 _start
00000c5e g     F .text	00000038 USART_ITConfig
20000000 g       .dalign	00000000 _data_vma
000004c0 g     F .text	0000001a main
000005fc  w      .text	00000000 DMA1_Channel5_IRQHandler
000000bc g     F .text	00000058 .hidden __divsi3
000004da g     F .text	000000c0 SystemInit
00000000 g       .init	00000000 _sinit
000005fc  w      .text	00000000 DMA1_Channel3_IRQHandler
000005fc  w      .text	00000000 TIM1_UP_IRQHandler
000005fc  w      .text	00000000 WWDG_IRQHandler
000005fc  w      .text	00000000 TIM2_IRQHandler
20001800 g       .stack	00000000 _eusrstack
000000a8 g     F .text	0000000a .hidden __riscv_save_2
000005fc  w      .text	00000000 SW_Handler
000005fc  w      .text	00000000 TIM1_BRK_IRQHandler
00000c96 g     F .text	00000008 USART_SendData
20000038 g       .data	00000000 _edata
20000664 g       .bss	00000000 _end
00000ce4 g       .dlalign	00000000 _data_lma
0000023c g     F .text	000000a8 USART2_IRQHandler
0000059a g     F .text	00000062 SystemCoreClockUpdate
00000114 g     F .text	00000024 .hidden __modsi3
2000065c g     O .bss	00000004 tick_ms
000005fc  w      .text	00000000 DMA1_Channel2_IRQHandler
20000000 g     O .data	00000010 HBPrescTable
000005fe  w      .text	00000000 handle_reset
000005fc  w      .text	00000000 FLASH_IRQHandler
000000a8 g     F .text	0000000a .hidden __riscv_save_0
00000466 g     F .text	00000032 Tick_Init
000003c6 g     F .text	000000a0 USART1_IRQHandler
000005fc  w      .text	00000000 I2C1_ER_IRQHandler
00000a88 g     F .text	00000006 NVIC_PriorityGroupConfig
000000b2 g     F .text	0000000a .hidden __riscv_restore_1
0000016e g     F .text	000000ce BLE_Init



Disassembly of section .init:

00000000 <_sinit>:
   0:	5fe0006f          	j	5fe <handle_reset>
   4:	00000000          	.word	0x00000000
   8:	000004ae          	.word	0x000004ae
   c:	000004b0          	.word	0x000004b0
	...
  30:	00000498          	.word	0x00000498
  34:	00000000          	.word	0x00000000
  38:	000005fc          	.word	0x000005fc
  3c:	00000000          	.word	0x00000000
  40:	000005fc          	.word	0x000005fc
  44:	000005fc          	.word	0x000005fc
  48:	000005fc          	.word	0x000005fc
  4c:	000005fc          	.word	0x000005fc
  50:	000005fc          	.word	0x000005fc
  54:	000005fc          	.word	0x000005fc
  58:	000005fc          	.word	0x000005fc
  5c:	000005fc          	.word	0x000005fc
  60:	000005fc          	.word	0x000005fc
  64:	000005fc          	.word	0x000005fc
  68:	000005fc          	.word	0x000005fc
  6c:	000005fc          	.word	0x000005fc
  70:	000005fc          	.word	0x000005fc
  74:	000005fc          	.word	0x000005fc
  78:	000005fc          	.word	0x000005fc
  7c:	000005fc          	.word	0x000005fc
  80:	000003c6          	.word	0x000003c6
  84:	000005fc          	.word	0x000005fc
  88:	000005fc          	.word	0x000005fc
  8c:	000005fc          	.word	0x000005fc
  90:	000005fc          	.word	0x000005fc
  94:	000005fc          	.word	0x000005fc
  98:	000005fc          	.word	0x000005fc
  9c:	0000023c          	.word	0x0000023c
  a0:	000005fc          	.word	0x000005fc
  a4:	0000                	unimp
	...

Disassembly of section .text:

000000a8 <__riscv_save_0>:
  a8:	1151                	addi	sp,sp,-12
  aa:	c026                	sw	s1,0(sp)
  ac:	c222                	sw	s0,4(sp)
  ae:	c406                	sw	ra,8(sp)
  b0:	8282                	jr	t0

000000b2 <__riscv_restore_0>:
  b2:	4482                	lw	s1,0(sp)
  b4:	4412                	lw	s0,4(sp)
  b6:	40a2                	lw	ra,8(sp)
  b8:	0131                	addi	sp,sp,12
  ba:	8082                	ret

000000bc <__divsi3>:
  bc:	02054e63          	bltz	a0,f8 <__umodsi3+0x8>
  c0:	0405c363          	bltz	a1,106 <__umodsi3+0x16>

000000c4 <__hidden___udivsi3>:
  c4:	862e                	mv	a2,a1
  c6:	85aa                	mv	a1,a0
  c8:	557d                	li	a0,-1
  ca:	c215                	beqz	a2,ee <__hidden___udivsi3+0x2a>
  cc:	4685                	li	a3,1
  ce:	00b67863          	bgeu	a2,a1,de <__hidden___udivsi3+0x1a>
  d2:	00c05663          	blez	a2,de <__hidden___udivsi3+0x1a>
  d6:	0606                	slli	a2,a2,0x1
  d8:	0686                	slli	a3,a3,0x1
  da:	feb66ce3          	bltu	a2,a1,d2 <__hidden___udivsi3+0xe>
  de:	4501                	li	a0,0
  e0:	00c5e463          	bltu	a1,a2,e8 <__hidden___udivsi3+0x24>
  e4:	8d91                	sub	a1,a1,a2
  e6:	8d55                	or	a0,a0,a3
  e8:	8285                	srli	a3,a3,0x1
  ea:	8205                	srli	a2,a2,0x1
  ec:	faf5                	bnez	a3,e0 <__hidden___udivsi3+0x1c>
  ee:	8082                	ret

000000f0 <__umodsi3>:
  f0:	8286                	mv	t0,ra
  f2:	3fc9                	jal	c4 <__hidden___udivsi3>
  f4:	852e                	mv	a0,a1
  f6:	8282                	jr	t0
  f8:	40a00533          	neg	a0,a0
  fc:	00b04763          	bgtz	a1,10a <__umodsi3+0x1a>
 100:	40b005b3          	neg	a1,a1
 104:	b7c1                	j	c4 <__hidden___udivsi3>
 106:	40b005b3          	neg	a1,a1
 10a:	8286                	mv	t0,ra
 10c:	3f65                	jal	c4 <__hidden___udivsi3>
 10e:	40a00533          	neg	a0,a0
 112:	8282                	jr	t0

00000114 <__modsi3>:
 114:	8286                	mv	t0,ra
 116:	0005c763          	bltz	a1,124 <__modsi3+0x10>
 11a:	00054963          	bltz	a0,12c <__modsi3+0x18>
 11e:	375d                	jal	c4 <__hidden___udivsi3>
 120:	852e                	mv	a0,a1
 122:	8282                	jr	t0
 124:	40b005b3          	neg	a1,a1
 128:	fe055be3          	bgez	a0,11e <__modsi3+0xa>
 12c:	40a00533          	neg	a0,a0
 130:	3f51                	jal	c4 <__hidden___udivsi3>
 132:	40b00533          	neg	a0,a1
 136:	8282                	jr	t0
	...

0000013a <__ring_pop.constprop.0>:
 13a:	10455783          	lhu	a5,260(a0)
 13e:	c795                	beqz	a5,16a <__ring_pop.constprop.0+0x30>
 140:	10255783          	lhu	a5,258(a0)
 144:	97aa                	add	a5,a5,a0
 146:	239c                	lbu	a5,0(a5)
 148:	a19c                	sb	a5,0(a1)
 14a:	10255783          	lhu	a5,258(a0)
 14e:	0785                	addi	a5,a5,1
 150:	0ff7f793          	zext.b	a5,a5
 154:	10f51123          	sh	a5,258(a0)
 158:	10455783          	lhu	a5,260(a0)
 15c:	17fd                	addi	a5,a5,-1
 15e:	07c2                	slli	a5,a5,0x10
 160:	83c1                	srli	a5,a5,0x10
 162:	10f51223          	sh	a5,260(a0)
 166:	4505                	li	a0,1
 168:	8082                	ret
 16a:	4501                	li	a0,0
 16c:	8082                	ret

0000016e <BLE_Init>:
 16e:	f3bff2ef          	jal	t0,a8 <__riscv_save_0>
 172:	6409                	lui	s0,0x2
 174:	fdc10113          	addi	sp,sp,-36
 178:	02140513          	addi	a0,s0,33 # 2021 <_data_lma+0x133d>
 17c:	4585                	li	a1,1
 17e:	c402                	sw	zero,8(sp)
 180:	c602                	sw	zero,12(sp)
 182:	c802                	sw	zero,16(sp)
 184:	ca02                	sw	zero,20(sp)
 186:	cc02                	sw	zero,24(sp)
 188:	ce02                	sw	zero,28(sp)
 18a:	d002                	sw	zero,32(sp)
 18c:	c002                	sw	zero,0(sp)
 18e:	c202                	sw	zero,4(sp)
 190:	203000ef          	jal	ra,b92 <RCC_PB2PeriphClockCmd>
 194:	08240537          	lui	a0,0x8240
 198:	4585                	li	a1,1
 19a:	03050513          	addi	a0,a0,48 # 8240030 <_data_lma+0x823f34c>
 19e:	23ad                	jal	708 <GPIO_PinRemapConfig>
 1a0:	47e1                	li	a5,24
 1a2:	c83e                	sw	a5,16(sp)
 1a4:	400117b7          	lui	a5,0x40011
 1a8:	4485                	li	s1,1
 1aa:	4711                	li	a4,4
 1ac:	002c                	addi	a1,sp,8
 1ae:	40078513          	addi	a0,a5,1024 # 40011400 <_eusrstack+0x2000fc00>
 1b2:	8478                	sh	a4,8(sp)
 1b4:	c626                	sw	s1,12(sp)
 1b6:	29c9                	jal	688 <GPIO_Init>
 1b8:	400117b7          	lui	a5,0x40011
 1bc:	46a1                	li	a3,8
 1be:	4711                	li	a4,4
 1c0:	002c                	addi	a1,sp,8
 1c2:	40078513          	addi	a0,a5,1024 # 40011400 <_eusrstack+0x2000fc00>
 1c6:	58040413          	addi	s0,s0,1408
 1ca:	8474                	sh	a3,8(sp)
 1cc:	c83a                	sw	a4,16(sp)
 1ce:	296d                	jal	688 <GPIO_Init>
 1d0:	ca22                	sw	s0,20(sp)
 1d2:	40004437          	lui	s0,0x40004
 1d6:	084c                	addi	a1,sp,20
 1d8:	000c07b7          	lui	a5,0xc0
 1dc:	40040513          	addi	a0,s0,1024 # 40004400 <_eusrstack+0x20002c00>
 1e0:	ce3e                	sw	a5,28(sp)
 1e2:	cc02                	sw	zero,24(sp)
 1e4:	02011023          	sh	zero,32(sp)
 1e8:	1c9000ef          	jal	ra,bb0 <USART_Init>
 1ec:	12700793          	li	a5,295
 1f0:	807c                	sh	a5,0(sp)
 1f2:	850a                	mv	a0,sp
 1f4:	4789                	li	a5,2
 1f6:	815c                	sb	a5,2(sp)
 1f8:	c226                	sw	s1,4(sp)
 1fa:	095000ef          	jal	ra,a8e <NVIC_Init>
 1fe:	4605                	li	a2,1
 200:	40040513          	addi	a0,s0,1024
 204:	52500593          	li	a1,1317
 208:	257000ef          	jal	ra,c5e <USART_ITConfig>
 20c:	40040513          	addi	a0,s0,1024
 210:	4585                	li	a1,1
 212:	239000ef          	jal	ra,c4a <USART_Cmd>
 216:	02000793          	li	a5,32
 21a:	847c                	sh	a5,8(sp)
 21c:	002c                	addi	a1,sp,8
 21e:	47c1                	li	a5,16
 220:	40011537          	lui	a0,0x40011
 224:	c83e                	sw	a5,16(sp)
 226:	c626                	sw	s1,12(sp)
 228:	2185                	jal	688 <GPIO_Init>
 22a:	4601                	li	a2,0
 22c:	02000593          	li	a1,32
 230:	40011537          	lui	a0,0x40011
 234:	21e9                	jal	6fe <GPIO_WriteBit>
 236:	02410113          	addi	sp,sp,36
 23a:	bda5                	j	b2 <__riscv_restore_0>

0000023c <USART2_IRQHandler>:
 23c:	1161                	addi	sp,sp,-8
 23e:	c222                	sw	s0,4(sp)
 240:	40004437          	lui	s0,0x40004
 244:	52500593          	li	a1,1317
 248:	40040513          	addi	a0,s0,1024 # 40004400 <_eusrstack+0x20002c00>
 24c:	25b000ef          	jal	ra,ca6 <USART_GetITStatus>
 250:	c521                	beqz	a0,298 <USART2_IRQHandler+0x5c>
 252:	40040513          	addi	a0,s0,1024
 256:	249000ef          	jal	ra,c9e <USART_ReceiveData>
 25a:	200007b7          	lui	a5,0x20000
 25e:	14478793          	addi	a5,a5,324 # 20000144 <ble_rx_ring>
 262:	1047d683          	lhu	a3,260(a5)
 266:	0ff57513          	zext.b	a0,a0
 26a:	81c8                	sb	a0,3(sp)
 26c:	0ff00713          	li	a4,255
 270:	02d76463          	bltu	a4,a3,298 <USART2_IRQHandler+0x5c>
 274:	1007d703          	lhu	a4,256(a5)
 278:	973e                	add	a4,a4,a5
 27a:	a308                	sb	a0,0(a4)
 27c:	1007d703          	lhu	a4,256(a5)
 280:	0705                	addi	a4,a4,1
 282:	0ff77713          	zext.b	a4,a4
 286:	10e79023          	sh	a4,256(a5)
 28a:	1047d703          	lhu	a4,260(a5)
 28e:	0705                	addi	a4,a4,1
 290:	0742                	slli	a4,a4,0x10
 292:	8341                	srli	a4,a4,0x10
 294:	10e79223          	sh	a4,260(a5)
 298:	40004437          	lui	s0,0x40004
 29c:	72700593          	li	a1,1831
 2a0:	40040513          	addi	a0,s0,1024 # 40004400 <_eusrstack+0x20002c00>
 2a4:	203000ef          	jal	ra,ca6 <USART_GetITStatus>
 2a8:	cd11                	beqz	a0,2c4 <USART2_IRQHandler+0x88>
 2aa:	20000537          	lui	a0,0x20000
 2ae:	00310593          	addi	a1,sp,3
 2b2:	03c50513          	addi	a0,a0,60 # 2000003c <ble_tx_ring>
 2b6:	3551                	jal	13a <__ring_pop.constprop.0>
 2b8:	c911                	beqz	a0,2cc <USART2_IRQHandler+0x90>
 2ba:	818c                	lbu	a1,3(sp)
 2bc:	40040513          	addi	a0,s0,1024
 2c0:	1d7000ef          	jal	ra,c96 <USART_SendData>
 2c4:	4412                	lw	s0,4(sp)
 2c6:	0121                	addi	sp,sp,8
 2c8:	30200073          	mret
 2cc:	4601                	li	a2,0
 2ce:	72700593          	li	a1,1831
 2d2:	40040513          	addi	a0,s0,1024
 2d6:	189000ef          	jal	ra,c5e <USART_ITConfig>
 2da:	200007b7          	lui	a5,0x20000
 2de:	02078c23          	sb	zero,56(a5) # 20000038 <ble_tx_busy>
 2e2:	b7cd                	j	2c4 <USART2_IRQHandler+0x88>

000002e4 <__ring_pop>:
 2e4:	20455703          	lhu	a4,516(a0)
 2e8:	cf05                	beqz	a4,320 <__ring_pop+0x3c>
 2ea:	dbfff2ef          	jal	t0,a8 <__riscv_save_0>
 2ee:	20255703          	lhu	a4,514(a0)
 2f2:	87ae                	mv	a5,a1
 2f4:	842a                	mv	s0,a0
 2f6:	972a                	add	a4,a4,a0
 2f8:	2318                	lbu	a4,0(a4)
 2fa:	85b2                	mv	a1,a2
 2fc:	a398                	sb	a4,0(a5)
 2fe:	20255503          	lhu	a0,514(a0)
 302:	0505                	addi	a0,a0,1
 304:	3d01                	jal	114 <__modsi3>
 306:	0542                	slli	a0,a0,0x10
 308:	8141                	srli	a0,a0,0x10
 30a:	20a41123          	sh	a0,514(s0)
 30e:	20445783          	lhu	a5,516(s0)
 312:	4505                	li	a0,1
 314:	17fd                	addi	a5,a5,-1
 316:	07c2                	slli	a5,a5,0x10
 318:	83c1                	srli	a5,a5,0x10
 31a:	20f41223          	sh	a5,516(s0)
 31e:	bb51                	j	b2 <__riscv_restore_0>
 320:	4501                	li	a0,0
 322:	8082                	ret

00000324 <GPS_Init>:
 324:	d85ff2ef          	jal	t0,a8 <__riscv_save_0>
 328:	6511                	lui	a0,0x4
 32a:	fdc10113          	addi	sp,sp,-36
 32e:	4585                	li	a1,1
 330:	02050513          	addi	a0,a0,32 # 4020 <_data_lma+0x333c>
 334:	c402                	sw	zero,8(sp)
 336:	c602                	sw	zero,12(sp)
 338:	c802                	sw	zero,16(sp)
 33a:	ca02                	sw	zero,20(sp)
 33c:	cc02                	sw	zero,24(sp)
 33e:	ce02                	sw	zero,28(sp)
 340:	d002                	sw	zero,32(sp)
 342:	c002                	sw	zero,0(sp)
 344:	c202                	sw	zero,4(sp)
 346:	04d000ef          	jal	ra,b92 <RCC_PB2PeriphClockCmd>
 34a:	40011437          	lui	s0,0x40011
 34e:	02000793          	li	a5,32
 352:	4485                	li	s1,1
 354:	847c                	sh	a5,8(sp)
 356:	002c                	addi	a1,sp,8
 358:	47e1                	li	a5,24
 35a:	40040513          	addi	a0,s0,1024 # 40011400 <_eusrstack+0x2000fc00>
 35e:	c626                	sw	s1,12(sp)
 360:	c83e                	sw	a5,16(sp)
 362:	261d                	jal	688 <GPIO_Init>
 364:	04000793          	li	a5,64
 368:	847c                	sh	a5,8(sp)
 36a:	002c                	addi	a1,sp,8
 36c:	4791                	li	a5,4
 36e:	40040513          	addi	a0,s0,1024
 372:	c83e                	sw	a5,16(sp)
 374:	2e11                	jal	688 <GPIO_Init>
 376:	67f1                	lui	a5,0x1c
 378:	40014437          	lui	s0,0x40014
 37c:	20078793          	addi	a5,a5,512 # 1c200 <_data_lma+0x1b51c>
 380:	084c                	addi	a1,sp,20
 382:	ca3e                	sw	a5,20(sp)
 384:	80040513          	addi	a0,s0,-2048 # 40013800 <_eusrstack+0x20012000>
 388:	000c07b7          	lui	a5,0xc0
 38c:	ce3e                	sw	a5,28(sp)
 38e:	cc02                	sw	zero,24(sp)
 390:	02011023          	sh	zero,32(sp)
 394:	01d000ef          	jal	ra,bb0 <USART_Init>
 398:	12000793          	li	a5,288
 39c:	850a                	mv	a0,sp
 39e:	807c                	sh	a5,0(sp)
 3a0:	8144                	sb	s1,2(sp)
 3a2:	c226                	sw	s1,4(sp)
 3a4:	6ea000ef          	jal	ra,a8e <NVIC_Init>
 3a8:	4605                	li	a2,1
 3aa:	80040513          	addi	a0,s0,-2048
 3ae:	52500593          	li	a1,1317
 3b2:	0ad000ef          	jal	ra,c5e <USART_ITConfig>
 3b6:	4585                	li	a1,1
 3b8:	80040513          	addi	a0,s0,-2048
 3bc:	08f000ef          	jal	ra,c4a <USART_Cmd>
 3c0:	02410113          	addi	sp,sp,36
 3c4:	b1fd                	j	b2 <__riscv_restore_0>

000003c6 <USART1_IRQHandler>:
 3c6:	1161                	addi	sp,sp,-8
 3c8:	c222                	sw	s0,4(sp)
 3ca:	40014437          	lui	s0,0x40014
 3ce:	52500593          	li	a1,1317
 3d2:	80040513          	addi	a0,s0,-2048 # 40013800 <_eusrstack+0x20012000>
 3d6:	0d1000ef          	jal	ra,ca6 <USART_GetITStatus>
 3da:	c131                	beqz	a0,41e <USART1_IRQHandler+0x58>
 3dc:	80040513          	addi	a0,s0,-2048
 3e0:	0bf000ef          	jal	ra,c9e <USART_ReceiveData>
 3e4:	c1c18793          	addi	a5,gp,-996 # 20000454 <gps_rx_ring>
 3e8:	2047d683          	lhu	a3,516(a5) # c0204 <_data_lma+0xbf520>
 3ec:	0ff57513          	zext.b	a0,a0
 3f0:	81c8                	sb	a0,3(sp)
 3f2:	1ff00713          	li	a4,511
 3f6:	02d76463          	bltu	a4,a3,41e <USART1_IRQHandler+0x58>
 3fa:	2007d703          	lhu	a4,512(a5)
 3fe:	973e                	add	a4,a4,a5
 400:	a308                	sb	a0,0(a4)
 402:	2007d703          	lhu	a4,512(a5)
 406:	0705                	addi	a4,a4,1
 408:	1ff77713          	andi	a4,a4,511
 40c:	20e79023          	sh	a4,512(a5)
 410:	2047d703          	lhu	a4,516(a5)
 414:	0705                	addi	a4,a4,1
 416:	0742                	slli	a4,a4,0x10
 418:	8341                	srli	a4,a4,0x10
 41a:	20e79223          	sh	a4,516(a5)
 41e:	40014437          	lui	s0,0x40014
 422:	72700593          	li	a1,1831
 426:	80040513          	addi	a0,s0,-2048 # 40013800 <_eusrstack+0x20012000>
 42a:	07d000ef          	jal	ra,ca6 <USART_GetITStatus>
 42e:	cd11                	beqz	a0,44a <USART1_IRQHandler+0x84>
 430:	08000613          	li	a2,128
 434:	00310593          	addi	a1,sp,3
 438:	a1418513          	addi	a0,gp,-1516 # 2000024c <gps_tx_ring>
 43c:	3565                	jal	2e4 <__ring_pop>
 43e:	c911                	beqz	a0,452 <USART1_IRQHandler+0x8c>
 440:	818c                	lbu	a1,3(sp)
 442:	80040513          	addi	a0,s0,-2048
 446:	051000ef          	jal	ra,c96 <USART_SendData>
 44a:	4412                	lw	s0,4(sp)
 44c:	0121                	addi	sp,sp,8
 44e:	30200073          	mret
 452:	4601                	li	a2,0
 454:	72700593          	li	a1,1831
 458:	80040513          	addi	a0,s0,-2048
 45c:	003000ef          	jal	ra,c5e <USART_ITConfig>
 460:	a0018923          	sb	zero,-1518(gp) # 2000024a <gps_tx_busy>
 464:	b7dd                	j	44a <USART1_IRQHandler+0x84>

00000466 <Tick_Init>:
 466:	c43ff2ef          	jal	t0,a8 <__riscv_save_0>
 46a:	e000f437          	lui	s0,0xe000f
 46e:	00042223          	sw	zero,4(s0) # e000f004 <_eusrstack+0xc000d804>
 472:	00042423          	sw	zero,8(s0)
 476:	200007b7          	lui	a5,0x20000
 47a:	0107a503          	lw	a0,16(a5) # 20000010 <SystemCoreClock>
 47e:	3e800593          	li	a1,1000
 482:	3189                	jal	c4 <__hidden___udivsi3>
 484:	157d                	addi	a0,a0,-1
 486:	c808                	sw	a0,16(s0)
 488:	e000e7b7          	lui	a5,0xe000e
 48c:	6705                	lui	a4,0x1
 48e:	10e7a023          	sw	a4,256(a5) # e000e100 <_eusrstack+0xc000c900>
 492:	47bd                	li	a5,15
 494:	c01c                	sw	a5,0(s0)
 496:	b931                	j	b2 <__riscv_restore_0>

00000498 <SysTick_Handler>:
 498:	e241a783          	lw	a5,-476(gp) # 2000065c <tick_ms>
 49c:	0785                	addi	a5,a5,1
 49e:	e2f1a223          	sw	a5,-476(gp) # 2000065c <tick_ms>
 4a2:	e000f7b7          	lui	a5,0xe000f
 4a6:	0007a223          	sw	zero,4(a5) # e000f004 <_eusrstack+0xc000d804>
 4aa:	30200073          	mret

000004ae <NMI_Handler>:
 4ae:	a001                	j	4ae <NMI_Handler>

000004b0 <HardFault_Handler>:
 4b0:	beef07b7          	lui	a5,0xbeef0
 4b4:	e000e737          	lui	a4,0xe000e
 4b8:	08078793          	addi	a5,a5,128 # beef0080 <_eusrstack+0x9eeee880>
 4bc:	c73c                	sw	a5,72(a4)
 4be:	a001                	j	4be <HardFault_Handler+0xe>

000004c0 <main>:
 4c0:	be9ff2ef          	jal	t0,a8 <__riscv_save_0>
 4c4:	4505                	li	a0,1
 4c6:	23c9                	jal	a88 <NVIC_PriorityGroupConfig>
 4c8:	28c9                	jal	59a <SystemCoreClockUpdate>
 4ca:	08800793          	li	a5,136
 4ce:	3007a073          	.4byte	0x3007a073
 4d2:	3f51                	jal	466 <Tick_Init>
 4d4:	3d81                	jal	324 <GPS_Init>
 4d6:	3961                	jal	16e <BLE_Init>
 4d8:	a001                	j	4d8 <main+0x18>

000004da <SystemInit>:
 4da:	bcfff2ef          	jal	t0,a8 <__riscv_save_0>
 4de:	4689                	li	a3,2
 4e0:	400227b7          	lui	a5,0x40022
 4e4:	40021437          	lui	s0,0x40021
 4e8:	c394                	sw	a3,0(a5)
 4ea:	401c                	lw	a5,0(s0)
 4ec:	68ff0737          	lui	a4,0x68ff0
 4f0:	74c1                	lui	s1,0xffff0
 4f2:	0017e793          	ori	a5,a5,1
 4f6:	c01c                	sw	a5,0(s0)
 4f8:	405c                	lw	a5,4(s0)
 4fa:	14fd                	addi	s1,s1,-1 # fffeffff <_eusrstack+0xdffee7ff>
 4fc:	8ff9                	and	a5,a5,a4
 4fe:	c05c                	sw	a5,4(s0)
 500:	401c                	lw	a5,0(s0)
 502:	fed70737          	lui	a4,0xfed70
 506:	176d                	addi	a4,a4,-5 # fed6fffb <_eusrstack+0xded6e7fb>
 508:	8ff9                	and	a5,a5,a4
 50a:	00100737          	lui	a4,0x100
 50e:	8fd9                	or	a5,a5,a4
 510:	c01c                	sw	a5,0(s0)
 512:	401c                	lw	a5,0(s0)
 514:	fffc0737          	lui	a4,0xfffc0
 518:	177d                	addi	a4,a4,-1 # fffbffff <_eusrstack+0xdffbe7ff>
 51a:	8ff9                	and	a5,a5,a4
 51c:	c01c                	sw	a5,0(s0)
 51e:	405c                	lw	a5,4(s0)
 520:	8fe5                	and	a5,a5,s1
 522:	c05c                	sw	a5,4(s0)
 524:	009d07b7          	lui	a5,0x9d0
 528:	c41c                	sw	a5,8(s0)
 52a:	4c1c                	lw	a5,24(s0)
 52c:	0207e793          	ori	a5,a5,32
 530:	cc1c                	sw	a5,24(s0)
 532:	400117b7          	lui	a5,0x40011
 536:	40078793          	addi	a5,a5,1024 # 40011400 <_eusrstack+0x2000fc00>
 53a:	4398                	lw	a4,0(a5)
 53c:	f0f77713          	andi	a4,a4,-241
 540:	c398                	sw	a4,0(a5)
 542:	4398                	lw	a4,0(a5)
 544:	08076713          	ori	a4,a4,128
 548:	c398                	sw	a4,0(a5)
 54a:	cb94                	sw	a3,16(a5)
 54c:	2cb9                	jal	7aa <GPIO_IPD_Unused>
 54e:	405c                	lw	a5,4(s0)
 550:	01000737          	lui	a4,0x1000
 554:	020006b7          	lui	a3,0x2000
 558:	c05c                	sw	a5,4(s0)
 55a:	405c                	lw	a5,4(s0)
 55c:	8fe5                	and	a5,a5,s1
 55e:	c05c                	sw	a5,4(s0)
 560:	405c                	lw	a5,4(s0)
 562:	c05c                	sw	a5,4(s0)
 564:	401c                	lw	a5,0(s0)
 566:	8fd9                	or	a5,a5,a4
 568:	c01c                	sw	a5,0(s0)
 56a:	400217b7          	lui	a5,0x40021
 56e:	4398                	lw	a4,0(a5)
 570:	8f75                	and	a4,a4,a3
 572:	df75                	beqz	a4,56e <SystemInit+0x94>
 574:	43d8                	lw	a4,4(a5)
 576:	400216b7          	lui	a3,0x40021
 57a:	9b71                	andi	a4,a4,-4
 57c:	c3d8                	sw	a4,4(a5)
 57e:	43d8                	lw	a4,4(a5)
 580:	00276713          	ori	a4,a4,2
 584:	c3d8                	sw	a4,4(a5)
 586:	4721                	li	a4,8
 588:	42dc                	lw	a5,4(a3)
 58a:	8bb1                	andi	a5,a5,12
 58c:	fee79ee3          	bne	a5,a4,588 <SystemInit+0xae>
 590:	400227b7          	lui	a5,0x40022
 594:	4709                	li	a4,2
 596:	c398                	sw	a4,0(a5)
 598:	be29                	j	b2 <__riscv_restore_0>

0000059a <SystemCoreClockUpdate>:
 59a:	40021737          	lui	a4,0x40021
 59e:	435c                	lw	a5,4(a4)
 5a0:	46a1                	li	a3,8
 5a2:	8bb1                	andi	a5,a5,12
 5a4:	04d79263          	bne	a5,a3,5e8 <SystemCoreClockUpdate+0x4e>
 5a8:	435c                	lw	a5,4(a4)
 5aa:	02dc7537          	lui	a0,0x2dc7
 5ae:	c0050513          	addi	a0,a0,-1024 # 2dc6c00 <_data_lma+0x2dc5f1c>
 5b2:	400216b7          	lui	a3,0x40021
 5b6:	42d8                	lw	a4,4(a3)
 5b8:	200007b7          	lui	a5,0x20000
 5bc:	00078793          	mv	a5,a5
 5c0:	8311                	srli	a4,a4,0x4
 5c2:	8b3d                	andi	a4,a4,15
 5c4:	97ba                	add	a5,a5,a4
 5c6:	239c                	lbu	a5,0(a5)
 5c8:	42d8                	lw	a4,4(a3)
 5ca:	0ff7f593          	zext.b	a1,a5
 5ce:	08077713          	andi	a4,a4,128
 5d2:	00f557b3          	srl	a5,a0,a5
 5d6:	ef11                	bnez	a4,5f2 <SystemCoreClockUpdate+0x58>
 5d8:	ad1ff2ef          	jal	t0,a8 <__riscv_save_0>
 5dc:	34e5                	jal	c4 <__hidden___udivsi3>
 5de:	20000737          	lui	a4,0x20000
 5e2:	00a72823          	sw	a0,16(a4) # 20000010 <SystemCoreClock>
 5e6:	b4f1                	j	b2 <__riscv_restore_0>
 5e8:	016e3537          	lui	a0,0x16e3
 5ec:	60050513          	addi	a0,a0,1536 # 16e3600 <_data_lma+0x16e291c>
 5f0:	b7c9                	j	5b2 <SystemCoreClockUpdate+0x18>
 5f2:	20000737          	lui	a4,0x20000
 5f6:	00f72823          	sw	a5,16(a4) # 20000010 <SystemCoreClock>
 5fa:	8082                	ret

000005fc <ADC1_IRQHandler>:
 5fc:	a001                	j	5fc <ADC1_IRQHandler>

000005fe <handle_reset>:
 5fe:	20000197          	auipc	gp,0x20000
 602:	23a18193          	addi	gp,gp,570 # 20000838 <__global_pointer$>
 606:	20001117          	auipc	sp,0x20001
 60a:	1fa10113          	addi	sp,sp,506 # 20001800 <_eusrstack>
 60e:	00000517          	auipc	a0,0x0
 612:	6d650513          	addi	a0,a0,1750 # ce4 <_data_lma>
 616:	20000597          	auipc	a1,0x20000
 61a:	9ea58593          	addi	a1,a1,-1558 # 20000000 <HBPrescTable>
 61e:	20000617          	auipc	a2,0x20000
 622:	a1a60613          	addi	a2,a2,-1510 # 20000038 <ble_tx_busy>
 626:	00c5fa63          	bgeu	a1,a2,63a <handle_reset+0x3c>
 62a:	00052283          	lw	t0,0(a0)
 62e:	0055a023          	sw	t0,0(a1)
 632:	0511                	addi	a0,a0,4
 634:	0591                	addi	a1,a1,4
 636:	fec5eae3          	bltu	a1,a2,62a <handle_reset+0x2c>
 63a:	20000517          	auipc	a0,0x20000
 63e:	9fe50513          	addi	a0,a0,-1538 # 20000038 <ble_tx_busy>
 642:	e2c18593          	addi	a1,gp,-468 # 20000664 <_ebss>
 646:	00b57763          	bgeu	a0,a1,654 <handle_reset+0x56>
 64a:	00052023          	sw	zero,0(a0)
 64e:	0511                	addi	a0,a0,4
 650:	feb56de3          	bltu	a0,a1,64a <handle_reset+0x4c>
 654:	6289                	lui	t0,0x2
 656:	88028293          	addi	t0,t0,-1920 # 1880 <_data_lma+0xb9c>
 65a:	30029073          	.4byte	0x30029073
 65e:	428d                	li	t0,3
 660:	80429073          	.4byte	0x80429073
 664:	00000297          	auipc	t0,0x0
 668:	99c28293          	addi	t0,t0,-1636 # 0 <_sinit>
 66c:	0032e293          	ori	t0,t0,3
 670:	30529073          	.4byte	0x30529073
 674:	e67ff0ef          	jal	ra,4da <SystemInit>
 678:	00000297          	auipc	t0,0x0
 67c:	e4828293          	addi	t0,t0,-440 # 4c0 <main>
 680:	34129073          	.4byte	0x34129073
 684:	30200073          	mret

00000688 <GPIO_Init>:
 688:	4594                	lw	a3,8(a1)
 68a:	0106f793          	andi	a5,a3,16
 68e:	00f6f313          	andi	t1,a3,15
 692:	c781                	beqz	a5,69a <GPIO_Init+0x12>
 694:	41dc                	lw	a5,4(a1)
 696:	00f36333          	or	t1,t1,a5
 69a:	0005d283          	lhu	t0,0(a1)
 69e:	0ff2f793          	zext.b	a5,t0
 6a2:	cfa9                	beqz	a5,6fc <GPIO_Init+0x74>
 6a4:	410c                	lw	a1,0(a0)
 6a6:	1161                	addi	sp,sp,-8
 6a8:	c222                	sw	s0,4(sp)
 6aa:	c026                	sw	s1,0(sp)
 6ac:	4781                	li	a5,0
 6ae:	02800393          	li	t2,40
 6b2:	443d                	li	s0,15
 6b4:	04800493          	li	s1,72
 6b8:	4705                	li	a4,1
 6ba:	00f71733          	sll	a4,a4,a5
 6be:	00e2f633          	and	a2,t0,a4
 6c2:	02c71063          	bne	a4,a2,6e2 <GPIO_Init+0x5a>
 6c6:	02769763          	bne	a3,t2,6f4 <GPIO_Init+0x6c>
 6ca:	c958                	sw	a4,20(a0)
 6cc:	00279613          	slli	a2,a5,0x2
 6d0:	00c41733          	sll	a4,s0,a2
 6d4:	fff74713          	not	a4,a4
 6d8:	8f6d                	and	a4,a4,a1
 6da:	00c31633          	sll	a2,t1,a2
 6de:	00e665b3          	or	a1,a2,a4
 6e2:	0785                	addi	a5,a5,1 # 20000001 <HBPrescTable+0x1>
 6e4:	4721                	li	a4,8
 6e6:	fce799e3          	bne	a5,a4,6b8 <GPIO_Init+0x30>
 6ea:	4412                	lw	s0,4(sp)
 6ec:	c10c                	sw	a1,0(a0)
 6ee:	4482                	lw	s1,0(sp)
 6f0:	0121                	addi	sp,sp,8
 6f2:	8082                	ret
 6f4:	fc969ce3          	bne	a3,s1,6cc <GPIO_Init+0x44>
 6f8:	c918                	sw	a4,16(a0)
 6fa:	bfc9                	j	6cc <GPIO_Init+0x44>
 6fc:	8082                	ret

000006fe <GPIO_WriteBit>:
 6fe:	c219                	beqz	a2,704 <GPIO_WriteBit+0x6>
 700:	c90c                	sw	a1,16(a0)
 702:	8082                	ret
 704:	c94c                	sw	a1,20(a0)
 706:	8082                	ret

00000708 <GPIO_PinRemapConfig>:
 708:	40010337          	lui	t1,0x40010
 70c:	080007b7          	lui	a5,0x8000
 710:	00c32683          	lw	a3,12(t1) # 4001000c <_eusrstack+0x2000e80c>
 714:	01055613          	srli	a2,a0,0x10
 718:	01051713          	slli	a4,a0,0x10
 71c:	8fe9                	and	a5,a5,a0
 71e:	8a3d                	andi	a2,a2,15
 720:	8341                	srli	a4,a4,0x10
 722:	c7bd                	beqz	a5,790 <GPIO_PinRemapConfig+0x88>
 724:	003007b7          	lui	a5,0x300
 728:	00f572b3          	and	t0,a0,a5
 72c:	02f29463          	bne	t0,a5,754 <GPIO_PinRemapConfig+0x4c>
 730:	f9000637          	lui	a2,0xf9000
 734:	167d                	addi	a2,a2,-1 # f8ffffff <_eusrstack+0xd8ffe7ff>
 736:	00c6f7b3          	and	a5,a3,a2
 73a:	00c32683          	lw	a3,12(t1)
 73e:	8ef1                	and	a3,a3,a2
 740:	00d32623          	sw	a3,12(t1)
 744:	c595                	beqz	a1,770 <GPIO_PinRemapConfig+0x68>
 746:	8145                	srli	a0,a0,0x11
 748:	07057513          	andi	a0,a0,112
 74c:	00a71733          	sll	a4,a4,a0
 750:	8fd9                	or	a5,a5,a4
 752:	a839                	j	770 <GPIO_PinRemapConfig+0x68>
 754:	004007b7          	lui	a5,0x400
 758:	8fe9                	and	a5,a5,a0
 75a:	cf99                	beqz	a5,778 <GPIO_PinRemapConfig+0x70>
 75c:	479d                	li	a5,7
 75e:	00c797b3          	sll	a5,a5,a2
 762:	fff7c793          	not	a5,a5
 766:	8ff5                	and	a5,a5,a3
 768:	c581                	beqz	a1,770 <GPIO_PinRemapConfig+0x68>
 76a:	00c71633          	sll	a2,a4,a2
 76e:	8fd1                	or	a5,a5,a2
 770:	40010737          	lui	a4,0x40010
 774:	c75c                	sw	a5,12(a4)
 776:	8082                	ret
 778:	002007b7          	lui	a5,0x200
 77c:	00f29363          	bne	t0,a5,782 <GPIO_PinRemapConfig+0x7a>
 780:	0641                	addi	a2,a2,16
 782:	479d                	li	a5,7
 784:	00c797b3          	sll	a5,a5,a2
 788:	fff7c793          	not	a5,a5
 78c:	8ff5                	and	a5,a5,a3
 78e:	bf5d                	j	744 <GPIO_PinRemapConfig+0x3c>
 790:	001007b7          	lui	a5,0x100
 794:	8fe9                	and	a5,a5,a0
 796:	c399                	beqz	a5,79c <GPIO_PinRemapConfig+0x94>
 798:	47bd                	li	a5,15
 79a:	b7ed                	j	784 <GPIO_PinRemapConfig+0x7c>
 79c:	01155793          	srli	a5,a0,0x11
 7a0:	0707f793          	andi	a5,a5,112
 7a4:	00f717b3          	sll	a5,a4,a5
 7a8:	b7c5                	j	788 <GPIO_PinRemapConfig+0x80>

000007aa <GPIO_IPD_Unused>:
 7aa:	8ffff2ef          	jal	t0,a8 <__riscv_save_0>
 7ae:	1151                	addi	sp,sp,-12
 7b0:	4585                	li	a1,1
 7b2:	03c00513          	li	a0,60
 7b6:	c002                	sw	zero,0(sp)
 7b8:	c202                	sw	zero,4(sp)
 7ba:	c402                	sw	zero,8(sp)
 7bc:	2ed9                	jal	b92 <RCC_PB2PeriphClockCmd>
 7be:	1ffff7b7          	lui	a5,0x1ffff
 7c2:	7047a703          	lw	a4,1796(a5) # 1ffff704 <_data_lma+0x1fffea20>
 7c6:	005206b7          	lui	a3,0x520
 7ca:	60068693          	addi	a3,a3,1536 # 520600 <_data_lma+0x51f91c>
 7ce:	f0f77793          	andi	a5,a4,-241
 7d2:	0ad78663          	beq	a5,a3,87e <GPIO_IPD_Unused+0xd4>
 7d6:	0cf6e263          	bltu	a3,a5,89a <GPIO_IPD_Unused+0xf0>
 7da:	002406b7          	lui	a3,0x240
 7de:	60068693          	addi	a3,a3,1536 # 240600 <_data_lma+0x23f91c>
 7e2:	20d78063          	beq	a5,a3,9e2 <GPIO_IPD_Unused+0x238>
 7e6:	04f6e063          	bltu	a3,a5,826 <GPIO_IPD_Unused+0x7c>
 7ea:	002206b7          	lui	a3,0x220
 7ee:	60068693          	addi	a3,a3,1536 # 220600 <_data_lma+0x21f91c>
 7f2:	24d78f63          	beq	a5,a3,a50 <GPIO_IPD_Unused+0x2a6>
 7f6:	00f6ef63          	bltu	a3,a5,814 <GPIO_IPD_Unused+0x6a>
 7fa:	77c1                	lui	a5,0xffff0
 7fc:	f0f78793          	addi	a5,a5,-241 # fffeff0f <_eusrstack+0xdffee70f>
 800:	8ff9                	and	a5,a5,a4
 802:	00200737          	lui	a4,0x200
 806:	60070713          	addi	a4,a4,1536 # 200600 <_data_lma+0x1ff91c>
 80a:	00e79b63          	bne	a5,a4,820 <GPIO_IPD_Unused+0x76>
 80e:	0f900793          	li	a5,249
 812:	a835                	j	84e <GPIO_IPD_Unused+0xa4>
 814:	00230737          	lui	a4,0x230
 818:	60070713          	addi	a4,a4,1536 # 230600 <_data_lma+0x22f91c>
 81c:	20e78463          	beq	a5,a4,a24 <GPIO_IPD_Unused+0x27a>
 820:	0131                	addi	sp,sp,12
 822:	891ff06f          	j	b2 <__riscv_restore_0>
 826:	005006b7          	lui	a3,0x500
 82a:	60068693          	addi	a3,a3,1536 # 500600 <_data_lma+0x4ff91c>
 82e:	1ad78363          	beq	a5,a3,9d4 <GPIO_IPD_Unused+0x22a>
 832:	04f6e063          	bltu	a3,a5,872 <GPIO_IPD_Unused+0xc8>
 836:	77c1                	lui	a5,0xffff0
 838:	f0f78793          	addi	a5,a5,-241 # fffeff0f <_eusrstack+0xdffee70f>
 83c:	8f7d                	and	a4,a4,a5
 83e:	004007b7          	lui	a5,0x400
 842:	60078793          	addi	a5,a5,1536 # 400600 <_data_lma+0x3ff91c>
 846:	fce79de3          	bne	a5,a4,820 <GPIO_IPD_Unused+0x76>
 84a:	0e900793          	li	a5,233
 84e:	40011437          	lui	s0,0x40011
 852:	807c                	sh	a5,0(sp)
 854:	858a                	mv	a1,sp
 856:	02800793          	li	a5,40
 85a:	80040513          	addi	a0,s0,-2048 # 40010800 <_eusrstack+0x2000f000>
 85e:	c43e                	sw	a5,8(sp)
 860:	3525                	jal	688 <GPIO_Init>
 862:	07f00793          	li	a5,127
 866:	807c                	sh	a5,0(sp)
 868:	858a                	mv	a1,sp
 86a:	c0040513          	addi	a0,s0,-1024
 86e:	3d29                	jal	688 <GPIO_Init>
 870:	bf45                	j	820 <GPIO_IPD_Unused+0x76>
 872:	00510737          	lui	a4,0x510
 876:	60070713          	addi	a4,a4,1536 # 510600 <_data_lma+0x50f91c>
 87a:	fae793e3          	bne	a5,a4,820 <GPIO_IPD_Unused+0x76>
 87e:	06900793          	li	a5,105
 882:	40011437          	lui	s0,0x40011
 886:	807c                	sh	a5,0(sp)
 888:	858a                	mv	a1,sp
 88a:	02800793          	li	a5,40
 88e:	80040513          	addi	a0,s0,-2048 # 40010800 <_eusrstack+0x2000f000>
 892:	c43e                	sw	a5,8(sp)
 894:	3bd5                	jal	688 <GPIO_Init>
 896:	47ad                	li	a5,11
 898:	b7f9                	j	866 <GPIO_IPD_Unused+0xbc>
 89a:	00640737          	lui	a4,0x640
 89e:	60070713          	addi	a4,a4,1536 # 640600 <_data_lma+0x63f91c>
 8a2:	f6e786e3          	beq	a5,a4,80e <GPIO_IPD_Unused+0x64>
 8a6:	06f76163          	bltu	a4,a5,908 <GPIO_IPD_Unused+0x15e>
 8aa:	00620737          	lui	a4,0x620
 8ae:	60070713          	addi	a4,a4,1536 # 620600 <_data_lma+0x61f91c>
 8b2:	f8e78ce3          	beq	a5,a4,84a <GPIO_IPD_Unused+0xa0>
 8b6:	04f76463          	bltu	a4,a5,8fe <GPIO_IPD_Unused+0x154>
 8ba:	00530737          	lui	a4,0x530
 8be:	60070713          	addi	a4,a4,1536 # 530600 <_data_lma+0x52f91c>
 8c2:	0ce78d63          	beq	a5,a4,99c <GPIO_IPD_Unused+0x1f2>
 8c6:	00610737          	lui	a4,0x610
 8ca:	60070713          	addi	a4,a4,1536 # 610600 <_data_lma+0x60f91c>
 8ce:	f4e799e3          	bne	a5,a4,820 <GPIO_IPD_Unused+0x76>
 8d2:	08000793          	li	a5,128
 8d6:	40011437          	lui	s0,0x40011
 8da:	807c                	sh	a5,0(sp)
 8dc:	858a                	mv	a1,sp
 8de:	02800793          	li	a5,40
 8e2:	80040513          	addi	a0,s0,-2048 # 40010800 <_eusrstack+0x2000f000>
 8e6:	c43e                	sw	a5,8(sp)
 8e8:	3345                	jal	688 <GPIO_Init>
 8ea:	07400793          	li	a5,116
 8ee:	858a                	mv	a1,sp
 8f0:	c0040513          	addi	a0,s0,-1024
 8f4:	807c                	sh	a5,0(sp)
 8f6:	3b49                	jal	688 <GPIO_Init>
 8f8:	0c800793          	li	a5,200
 8fc:	a0ad                	j	966 <GPIO_IPD_Unused+0x1bc>
 8fe:	00630737          	lui	a4,0x630
 902:	60070713          	addi	a4,a4,1536 # 630600 <_data_lma+0x62f91c>
 906:	b781                	j	846 <GPIO_IPD_Unused+0x9c>
 908:	00731737          	lui	a4,0x731
 90c:	80070713          	addi	a4,a4,-2048 # 730800 <_data_lma+0x72fb1c>
 910:	02e78663          	beq	a5,a4,93c <GPIO_IPD_Unused+0x192>
 914:	00f76b63          	bltu	a4,a5,92a <GPIO_IPD_Unused+0x180>
 918:	00701737          	lui	a4,0x701
 91c:	80070713          	addi	a4,a4,-2048 # 700800 <_data_lma+0x6ffb1c>
 920:	04e78863          	beq	a5,a4,970 <GPIO_IPD_Unused+0x1c6>
 924:	00710737          	lui	a4,0x710
 928:	b74d                	j	8ca <GPIO_IPD_Unused+0x120>
 92a:	00741737          	lui	a4,0x741
 92e:	80070713          	addi	a4,a4,-2048 # 740800 <_data_lma+0x73fb1c>
 932:	eee797e3          	bne	a5,a4,820 <GPIO_IPD_Unused+0x76>
 936:	0c000793          	li	a5,192
 93a:	bf71                	j	8d6 <GPIO_IPD_Unused+0x12c>
 93c:	0c000793          	li	a5,192
 940:	40011437          	lui	s0,0x40011
 944:	807c                	sh	a5,0(sp)
 946:	858a                	mv	a1,sp
 948:	02800793          	li	a5,40
 94c:	80040513          	addi	a0,s0,-2048 # 40010800 <_eusrstack+0x2000f000>
 950:	c43e                	sw	a5,8(sp)
 952:	3b1d                	jal	688 <GPIO_Init>
 954:	07400793          	li	a5,116
 958:	858a                	mv	a1,sp
 95a:	c0040513          	addi	a0,s0,-1024
 95e:	807c                	sh	a5,0(sp)
 960:	3325                	jal	688 <GPIO_Init>
 962:	0c900793          	li	a5,201
 966:	807c                	sh	a5,0(sp)
 968:	858a                	mv	a1,sp
 96a:	40011537          	lui	a0,0x40011
 96e:	b701                	j	86e <GPIO_IPD_Unused+0xc4>
 970:	0c000793          	li	a5,192
 974:	40011437          	lui	s0,0x40011
 978:	807c                	sh	a5,0(sp)
 97a:	858a                	mv	a1,sp
 97c:	02800793          	li	a5,40
 980:	80040513          	addi	a0,s0,-2048 # 40010800 <_eusrstack+0x2000f000>
 984:	c43e                	sw	a5,8(sp)
 986:	3309                	jal	688 <GPIO_Init>
 988:	07400793          	li	a5,116
 98c:	858a                	mv	a1,sp
 98e:	c0040513          	addi	a0,s0,-1024
 992:	807c                	sh	a5,0(sp)
 994:	39d5                	jal	688 <GPIO_Init>
 996:	0cb00793          	li	a5,203
 99a:	b7f1                	j	966 <GPIO_IPD_Unused+0x1bc>
 99c:	06900793          	li	a5,105
 9a0:	40011437          	lui	s0,0x40011
 9a4:	807c                	sh	a5,0(sp)
 9a6:	858a                	mv	a1,sp
 9a8:	02800793          	li	a5,40
 9ac:	80040513          	addi	a0,s0,-2048 # 40010800 <_eusrstack+0x2000f000>
 9b0:	c43e                	sw	a5,8(sp)
 9b2:	39d9                	jal	688 <GPIO_Init>
 9b4:	47ad                	li	a5,11
 9b6:	858a                	mv	a1,sp
 9b8:	c0040513          	addi	a0,s0,-1024
 9bc:	807c                	sh	a5,0(sp)
 9be:	31e9                	jal	688 <GPIO_Init>
 9c0:	02c00793          	li	a5,44
 9c4:	858a                	mv	a1,sp
 9c6:	40011537          	lui	a0,0x40011
 9ca:	807c                	sh	a5,0(sp)
 9cc:	3975                	jal	688 <GPIO_Init>
 9ce:	06c00793          	li	a5,108
 9d2:	a0a1                	j	a1a <GPIO_IPD_Unused+0x270>
 9d4:	0c800793          	li	a5,200
 9d8:	807c                	sh	a5,0(sp)
 9da:	02800793          	li	a5,40
 9de:	c43e                	sw	a5,8(sp)
 9e0:	b761                	j	968 <GPIO_IPD_Unused+0x1be>
 9e2:	0f900793          	li	a5,249
 9e6:	40011437          	lui	s0,0x40011
 9ea:	807c                	sh	a5,0(sp)
 9ec:	858a                	mv	a1,sp
 9ee:	02800793          	li	a5,40
 9f2:	80040513          	addi	a0,s0,-2048 # 40010800 <_eusrstack+0x2000f000>
 9f6:	c43e                	sw	a5,8(sp)
 9f8:	3941                	jal	688 <GPIO_Init>
 9fa:	07f00793          	li	a5,127
 9fe:	858a                	mv	a1,sp
 a00:	c0040513          	addi	a0,s0,-1024
 a04:	807c                	sh	a5,0(sp)
 a06:	3149                	jal	688 <GPIO_Init>
 a08:	0e900793          	li	a5,233
 a0c:	858a                	mv	a1,sp
 a0e:	40011537          	lui	a0,0x40011
 a12:	807c                	sh	a5,0(sp)
 a14:	3995                	jal	688 <GPIO_Init>
 a16:	08d00793          	li	a5,141
 a1a:	807c                	sh	a5,0(sp)
 a1c:	858a                	mv	a1,sp
 a1e:	40040513          	addi	a0,s0,1024
 a22:	b5b1                	j	86e <GPIO_IPD_Unused+0xc4>
 a24:	0f900793          	li	a5,249
 a28:	40011437          	lui	s0,0x40011
 a2c:	807c                	sh	a5,0(sp)
 a2e:	858a                	mv	a1,sp
 a30:	02800793          	li	a5,40
 a34:	80040513          	addi	a0,s0,-2048 # 40010800 <_eusrstack+0x2000f000>
 a38:	c43e                	sw	a5,8(sp)
 a3a:	31b9                	jal	688 <GPIO_Init>
 a3c:	07f00793          	li	a5,127
 a40:	858a                	mv	a1,sp
 a42:	c0040513          	addi	a0,s0,-1024
 a46:	807c                	sh	a5,0(sp)
 a48:	3181                	jal	688 <GPIO_Init>
 a4a:	02600793          	li	a5,38
 a4e:	bf9d                	j	9c4 <GPIO_IPD_Unused+0x21a>
 a50:	0f900793          	li	a5,249
 a54:	40011437          	lui	s0,0x40011
 a58:	807c                	sh	a5,0(sp)
 a5a:	858a                	mv	a1,sp
 a5c:	02800793          	li	a5,40
 a60:	80040513          	addi	a0,s0,-2048 # 40010800 <_eusrstack+0x2000f000>
 a64:	c43e                	sw	a5,8(sp)
 a66:	310d                	jal	688 <GPIO_Init>
 a68:	07f00793          	li	a5,127
 a6c:	858a                	mv	a1,sp
 a6e:	c0040513          	addi	a0,s0,-1024
 a72:	807c                	sh	a5,0(sp)
 a74:	3911                	jal	688 <GPIO_Init>
 a76:	02000793          	li	a5,32
 a7a:	858a                	mv	a1,sp
 a7c:	40011537          	lui	a0,0x40011
 a80:	807c                	sh	a5,0(sp)
 a82:	3119                	jal	688 <GPIO_Init>
 a84:	47b5                	li	a5,13
 a86:	bf51                	j	a1a <GPIO_IPD_Unused+0x270>

00000a88 <NVIC_PriorityGroupConfig>:
 a88:	e2a1a423          	sw	a0,-472(gp) # 20000660 <NVIC_Priority_Group>
 a8c:	8082                	ret

00000a8e <NVIC_Init>:
 a8e:	e281a703          	lw	a4,-472(gp) # 20000660 <NVIC_Priority_Group>
 a92:	4785                	li	a5,1
 a94:	2114                	lbu	a3,0(a0)
 a96:	02f71063          	bne	a4,a5,ab6 <NVIC_Init+0x28>
 a9a:	311c                	lbu	a5,1(a0)
 a9c:	02e79c63          	bne	a5,a4,ad4 <NVIC_Init+0x46>
 aa0:	213c                	lbu	a5,2(a0)
 aa2:	079a                	slli	a5,a5,0x6
 aa4:	f807e793          	ori	a5,a5,-128
 aa8:	e000e737          	lui	a4,0xe000e
 aac:	0ff7f793          	zext.b	a5,a5
 ab0:	9736                	add	a4,a4,a3
 ab2:	40f70023          	sb	a5,1024(a4) # e000e400 <_eusrstack+0xc000cc00>
 ab6:	4705                	li	a4,1
 ab8:	0056d793          	srli	a5,a3,0x5
 abc:	00d71733          	sll	a4,a4,a3
 ac0:	4154                	lw	a3,4(a0)
 ac2:	ce89                	beqz	a3,adc <NVIC_Init+0x4e>
 ac4:	04078793          	addi	a5,a5,64
 ac8:	078a                	slli	a5,a5,0x2
 aca:	e000e6b7          	lui	a3,0xe000e
 ace:	97b6                	add	a5,a5,a3
 ad0:	c398                	sw	a4,0(a5)
 ad2:	8082                	ret
 ad4:	f3ed                	bnez	a5,ab6 <NVIC_Init+0x28>
 ad6:	213c                	lbu	a5,2(a0)
 ad8:	079a                	slli	a5,a5,0x6
 ada:	b7f9                	j	aa8 <NVIC_Init+0x1a>
 adc:	06078793          	addi	a5,a5,96
 ae0:	e000e6b7          	lui	a3,0xe000e
 ae4:	078a                	slli	a5,a5,0x2
 ae6:	97b6                	add	a5,a5,a3
 ae8:	c398                	sw	a4,0(a5)
 aea:	0000100f          	.4byte	0x100f
 aee:	8082                	ret

00000af0 <RCC_GetClocksFreq>:
 af0:	db8ff2ef          	jal	t0,a8 <__riscv_save_0>
 af4:	40021737          	lui	a4,0x40021
 af8:	435c                	lw	a5,4(a4)
 afa:	46a1                	li	a3,8
 afc:	842a                	mv	s0,a0
 afe:	8bb1                	andi	a5,a5,12
 b00:	08d79463          	bne	a5,a3,b88 <RCC_GetClocksFreq+0x98>
 b04:	435c                	lw	a5,4(a4)
 b06:	02dc77b7          	lui	a5,0x2dc7
 b0a:	c0078793          	addi	a5,a5,-1024 # 2dc6c00 <_data_lma+0x2dc5f1c>
 b0e:	c01c                	sw	a5,0(s0)
 b10:	40021637          	lui	a2,0x40021
 b14:	4254                	lw	a3,4(a2)
 b16:	20000737          	lui	a4,0x20000
 b1a:	02870713          	addi	a4,a4,40 # 20000028 <PBHBPrescTable>
 b1e:	8291                	srli	a3,a3,0x4
 b20:	8abd                	andi	a3,a3,15
 b22:	9736                	add	a4,a4,a3
 b24:	2308                	lbu	a0,0(a4)
 b26:	4258                	lw	a4,4(a2)
 b28:	0ff57593          	zext.b	a1,a0
 b2c:	08077713          	andi	a4,a4,128
 b30:	00a7d533          	srl	a0,a5,a0
 b34:	e701                	bnez	a4,b3c <RCC_GetClocksFreq+0x4c>
 b36:	853e                	mv	a0,a5
 b38:	d8cff0ef          	jal	ra,c4 <__hidden___udivsi3>
 b3c:	c048                	sw	a0,4(s0)
 b3e:	c408                	sw	a0,8(s0)
 b40:	c448                	sw	a0,12(s0)
 b42:	400217b7          	lui	a5,0x40021
 b46:	43dc                	lw	a5,4(a5)
 b48:	468d                	li	a3,3
 b4a:	83ad                	srli	a5,a5,0xb
 b4c:	8bfd                	andi	a5,a5,31
 b4e:	0037d713          	srli	a4,a5,0x3
 b52:	078a                	slli	a5,a5,0x2
 b54:	8bf1                	andi	a5,a5,28
 b56:	8fd9                	or	a5,a5,a4
 b58:	0137f613          	andi	a2,a5,19
 b5c:	0037f713          	andi	a4,a5,3
 b60:	00c6f463          	bgeu	a3,a2,b68 <RCC_GetClocksFreq+0x78>
 b64:	ff478713          	addi	a4,a5,-12 # 40020ff4 <_eusrstack+0x2001f7f4>
 b68:	400217b7          	lui	a5,0x40021
 b6c:	43dc                	lw	a5,4(a5)
 b6e:	0007ca63          	bltz	a5,b82 <RCC_GetClocksFreq+0x92>
 b72:	200007b7          	lui	a5,0x20000
 b76:	01478793          	addi	a5,a5,20 # 20000014 <ADCPrescTable>
 b7a:	97ba                	add	a5,a5,a4
 b7c:	238c                	lbu	a1,0(a5)
 b7e:	d46ff0ef          	jal	ra,c4 <__hidden___udivsi3>
 b82:	c808                	sw	a0,16(s0)
 b84:	d2eff06f          	j	b2 <__riscv_restore_0>
 b88:	016e37b7          	lui	a5,0x16e3
 b8c:	60078793          	addi	a5,a5,1536 # 16e3600 <_data_lma+0x16e291c>
 b90:	bfbd                	j	b0e <RCC_GetClocksFreq+0x1e>

00000b92 <RCC_PB2PeriphClockCmd>:
 b92:	c599                	beqz	a1,ba0 <RCC_PB2PeriphClockCmd+0xe>
 b94:	40021737          	lui	a4,0x40021
 b98:	4f1c                	lw	a5,24(a4)
 b9a:	8fc9                	or	a5,a5,a0
 b9c:	cf1c                	sw	a5,24(a4)
 b9e:	8082                	ret
 ba0:	400217b7          	lui	a5,0x40021
 ba4:	4f98                	lw	a4,24(a5)
 ba6:	fff54513          	not	a0,a0
 baa:	8d79                	and	a0,a0,a4
 bac:	cf88                	sw	a0,24(a5)
 bae:	8082                	ret

00000bb0 <USART_Init>:
 bb0:	cf8ff2ef          	jal	t0,a8 <__riscv_save_0>
 bb4:	2916                	lhu	a3,16(a0)
 bb6:	77f5                	lui	a5,0xffffd
 bb8:	17fd                	addi	a5,a5,-1 # ffffcfff <_eusrstack+0xdfffb7ff>
 bba:	8efd                	and	a3,a3,a5
 bbc:	21fe                	lhu	a5,6(a1)
 bbe:	25da                	lhu	a4,12(a1)
 bc0:	1121                	addi	sp,sp,-24
 bc2:	8fd5                	or	a5,a5,a3
 bc4:	a91e                	sh	a5,16(a0)
 bc6:	2556                	lhu	a3,12(a0)
 bc8:	77fd                	lui	a5,0xfffff
 bca:	9f378793          	addi	a5,a5,-1549 # ffffe9f3 <_eusrstack+0xdfffd1f3>
 bce:	8efd                	and	a3,a3,a5
 bd0:	21de                	lhu	a5,4(a1)
 bd2:	842a                	mv	s0,a0
 bd4:	84ae                	mv	s1,a1
 bd6:	8fd5                	or	a5,a5,a3
 bd8:	2596                	lhu	a3,8(a1)
 bda:	8fd5                	or	a5,a5,a3
 bdc:	25b6                	lhu	a3,10(a1)
 bde:	8fd5                	or	a5,a5,a3
 be0:	a55e                	sh	a5,12(a0)
 be2:	295e                	lhu	a5,20(a0)
 be4:	07c2                	slli	a5,a5,0x10
 be6:	83c1                	srli	a5,a5,0x10
 be8:	cff7f793          	andi	a5,a5,-769
 bec:	8fd9                	or	a5,a5,a4
 bee:	a95e                	sh	a5,20(a0)
 bf0:	0048                	addi	a0,sp,4
 bf2:	3dfd                	jal	af0 <RCC_GetClocksFreq>
 bf4:	400147b7          	lui	a5,0x40014
 bf8:	80078793          	addi	a5,a5,-2048 # 40013800 <_eusrstack+0x20012000>
 bfc:	04f41563          	bne	s0,a5,c46 <USART_Init+0x96>
 c00:	47c2                	lw	a5,16(sp)
 c02:	4565                	li	a0,25
 c04:	02a78533          	mul	a0,a5,a0
 c08:	408c                	lw	a1,0(s1)
 c0a:	058a                	slli	a1,a1,0x2
 c0c:	cb8ff0ef          	jal	ra,c4 <__hidden___udivsi3>
 c10:	06400593          	li	a1,100
 c14:	c02a                	sw	a0,0(sp)
 c16:	caeff0ef          	jal	ra,c4 <__hidden___udivsi3>
 c1a:	00451493          	slli	s1,a0,0x4
 c1e:	4502                	lw	a0,0(sp)
 c20:	06400593          	li	a1,100
 c24:	cccff0ef          	jal	ra,f0 <__umodsi3>
 c28:	0512                	slli	a0,a0,0x4
 c2a:	06400593          	li	a1,100
 c2e:	03250513          	addi	a0,a0,50 # 40011032 <_eusrstack+0x2000f832>
 c32:	c92ff0ef          	jal	ra,c4 <__hidden___udivsi3>
 c36:	893d                	andi	a0,a0,15
 c38:	8d45                	or	a0,a0,s1
 c3a:	0542                	slli	a0,a0,0x10
 c3c:	8141                	srli	a0,a0,0x10
 c3e:	a40a                	sh	a0,8(s0)
 c40:	0161                	addi	sp,sp,24
 c42:	c70ff06f          	j	b2 <__riscv_restore_0>
 c46:	47b2                	lw	a5,12(sp)
 c48:	bf6d                	j	c02 <USART_Init+0x52>

00000c4a <USART_Cmd>:
 c4a:	255e                	lhu	a5,12(a0)
 c4c:	c589                	beqz	a1,c56 <USART_Cmd+0xc>
 c4e:	6709                	lui	a4,0x2
 c50:	8fd9                	or	a5,a5,a4
 c52:	a55e                	sh	a5,12(a0)
 c54:	8082                	ret
 c56:	7779                	lui	a4,0xffffe
 c58:	177d                	addi	a4,a4,-1 # ffffdfff <_eusrstack+0xdfffc7ff>
 c5a:	8ff9                	and	a5,a5,a4
 c5c:	bfdd                	j	c52 <USART_Cmd+0x8>

00000c5e <USART_ITConfig>:
 c5e:	0ff5f713          	zext.b	a4,a1
 c62:	4785                	li	a5,1
 c64:	8315                	srli	a4,a4,0x5
 c66:	00b795b3          	sll	a1,a5,a1
 c6a:	00f71963          	bne	a4,a5,c7c <USART_ITConfig+0x1e>
 c6e:	00c50793          	addi	a5,a0,12
 c72:	4398                	lw	a4,0(a5)
 c74:	ce01                	beqz	a2,c8c <USART_ITConfig+0x2e>
 c76:	8f4d                	or	a4,a4,a1
 c78:	c398                	sw	a4,0(a5)
 c7a:	8082                	ret
 c7c:	4689                	li	a3,2
 c7e:	01450793          	addi	a5,a0,20
 c82:	fed718e3          	bne	a4,a3,c72 <USART_ITConfig+0x14>
 c86:	01050793          	addi	a5,a0,16
 c8a:	b7e5                	j	c72 <USART_ITConfig+0x14>
 c8c:	fff5c593          	not	a1,a1
 c90:	8df9                	and	a1,a1,a4
 c92:	c38c                	sw	a1,0(a5)
 c94:	8082                	ret

00000c96 <USART_SendData>:
 c96:	1ff5f593          	andi	a1,a1,511
 c9a:	a14e                	sh	a1,4(a0)
 c9c:	8082                	ret

00000c9e <USART_ReceiveData>:
 c9e:	214a                	lhu	a0,4(a0)
 ca0:	1ff57513          	andi	a0,a0,511
 ca4:	8082                	ret

00000ca6 <USART_GetITStatus>:
 ca6:	0ff5f713          	zext.b	a4,a1
 caa:	4685                	li	a3,1
 cac:	8315                	srli	a4,a4,0x5
 cae:	87aa                	mv	a5,a0
 cb0:	00b69533          	sll	a0,a3,a1
 cb4:	02d71063          	bne	a4,a3,cd4 <USART_GetITStatus+0x2e>
 cb8:	27da                	lhu	a4,12(a5)
 cba:	239e                	lhu	a5,0(a5)
 cbc:	8d79                	and	a0,a0,a4
 cbe:	07c2                	slli	a5,a5,0x10
 cc0:	83c1                	srli	a5,a5,0x10
 cc2:	c901                	beqz	a0,cd2 <USART_GetITStatus+0x2c>
 cc4:	81a1                	srli	a1,a1,0x8
 cc6:	4705                	li	a4,1
 cc8:	00b71733          	sll	a4,a4,a1
 ccc:	8ff9                	and	a5,a5,a4
 cce:	00f03533          	snez	a0,a5
 cd2:	8082                	ret
 cd4:	4689                	li	a3,2
 cd6:	00d71463          	bne	a4,a3,cde <USART_GetITStatus+0x38>
 cda:	2b9a                	lhu	a4,16(a5)
 cdc:	bff9                	j	cba <USART_GetITStatus+0x14>
 cde:	2bda                	lhu	a4,20(a5)
 ce0:	bfe9                	j	cba <USART_GetITStatus+0x14>
	...
